; Function Attrs: mustprogress uwtable
define void @_ZN6casadi2MX8mldivideERKS0_S2_(ptr dead_on_unwind noalias writable sret(%"class.casadi::MX") align 8 %0, ptr noundef nonnull align 8 dereferenceable(8) %1, ptr noundef nonnull align 8 dereferenceable(8) %2) local_unnamed_addr #3 align 2 {
  %4 = tail call noundef ptr @_ZNK6casadi12SharedObjectptEv(ptr noundef nonnull align 8 dereferenceable(8) %1)
  %5 = getelementptr inbounds i8, ptr %4, i64 56
  %6 = tail call noundef zeroext i1 @_ZNK6casadi8Sparsity9is_scalarEb(ptr noundef nonnull align 8 dereferenceable(8) %5, i1 noundef zeroext false)
  br i1 %6, label %11, label %7

7:                                                ; preds = %3
  %8 = tail call noundef ptr @_ZNK6casadi12SharedObjectptEv(ptr noundef nonnull align 8 dereferenceable(8) %2)
  %9 = getelementptr inbounds i8, ptr %8, i64 56
  %10 = tail call noundef zeroext i1 @_ZNK6casadi8Sparsity9is_scalarEb(ptr noundef nonnull align 8 dereferenceable(8) %9, i1 noundef zeroext false)
  br i1 %10, label %11, label %12

11:                                               ; preds = %7, %3
  tail call void @_ZN6casadi2MX6binaryExRKS0_S2_(ptr dead_on_unwind writable sret(%"class.casadi::MX") align 8 %0, i64 noundef 4, ptr noundef nonnull align 8 dereferenceable(8) %2, ptr noundef nonnull align 8 dereferenceable(8) %1)
  br label %13

12:                                               ; preds = %7
  tail call void @_ZN6casadi2MX5solveERKS0_S2_(ptr dead_on_unwind writable sret(%"class.casadi::MX") align 8 %0, ptr noundef nonnull align 8 dereferenceable(8) %1, ptr noundef nonnull align 8 dereferenceable(8) %2)
  br label %13

13:                                               ; preds = %12, %11
  ret void
}